target datalayout = "e-m:e-p270:32:32-p271:32:32-p272:64:64-i64:64-i128:128-f80:128-n8:16:32:64-S128"
target triple = "x86_64-pc-linux-gnu"

%struct._address = type { i32, i32, ptr, ptr }
%struct._packet_info = type { ptr, ptr, i32, i32, %struct.nstime_t, %struct.nstime_t, %struct.nstime_t, i32, ptr, ptr, ptr, ptr, %struct._address, %struct._address, %struct._address, %struct._address, %struct._address, %struct._address, i32, ptr, i32, %struct.anon, i32, i32, i32, i32, ptr, i32, ptr, ptr, i16, i16, i32, i32, i16, i32, i32, ptr, ptr, ptr, i8, i8, i16, i16, i16, i32, i16, i16, ptr, ptr, ptr, ptr, ptr, i32 }
%struct.nstime_t = type { i64, i32 }
%struct.anon = type { i8, [3 x i8] }
%struct._proto_node = type { ptr, ptr, ptr, ptr, ptr, ptr }
%struct.field_info = type { ptr, i32, i32, i32, i32, i32, i32, ptr, ptr, ptr, i32, i32 }
%struct.ltp_data_seg_info_t = type { ptr, ptr, i64, i64 }
%struct.ltp_frame_info_t = type { i32, %struct.nstime_t }

@hf_ltp_data_clm_rpt = internal global i32 0, align 4

; Function Attrs: nounwind uwtable
define internal void @proto_item_set_generated(ptr noundef %0) #0 {
  %2 = alloca ptr, align 8
  store ptr %0, ptr %2, align 8
  %3 = load ptr, ptr %2, align 8
  %4 = icmp ne ptr %3, null
  br i1 %4, label %5, label %24

5:                                                ; preds = %1
  br label %6

6:                                                ; preds = %5
  %7 = load ptr, ptr %2, align 8
  %8 = getelementptr inbounds %struct._proto_node, ptr %7, i32 0, i32 4
  %9 = load ptr, ptr %8, align 8
  %10 = icmp ne ptr %9, null
  br i1 %10, label %11, label %22

11:                                               ; preds = %6
  %12 = load ptr, ptr %2, align 8
  %13 = getelementptr inbounds %struct._proto_node, ptr %12, i32 0, i32 4
  %14 = load ptr, ptr %13, align 8
  %15 = getelementptr inbounds %struct.field_info, ptr %14, i32 0, i32 6
  %16 = load i32, ptr %15, align 4
  %17 = or i32 %16, 2
  %18 = load ptr, ptr %2, align 8
  %19 = getelementptr inbounds %struct._proto_node, ptr %18, i32 0, i32 4
  %20 = load ptr, ptr %19, align 8
  %21 = getelementptr inbounds %struct.field_info, ptr %20, i32 0, i32 6
  store i32 %17, ptr %21, align 4
  br label %22

22:                                               ; preds = %11, %6
  br label %23

23:                                               ; preds = %22
  br label %24

24:                                               ; preds = %23, %1
  ret void
}

; Function Attrs: nounwind uwtable
define internal void @ltp_data_seg_find_report(ptr noundef %0, ptr noundef %1, ptr noundef %2) #0 {
  %4 = alloca ptr, align 8
  %5 = alloca ptr, align 8
  %6 = alloca ptr, align 8
  %7 = alloca ptr, align 8
  %8 = alloca ptr, align 8
  %9 = alloca ptr, align 8
  %10 = alloca ptr, align 8
  %11 = alloca ptr, align 8
  store ptr %0, ptr %4, align 8
  store ptr %1, ptr %5, align 8
  store ptr %2, ptr %6, align 8
  %12 = load ptr, ptr %5, align 8
  store ptr %12, ptr %7, align 8
  %13 = load ptr, ptr %6, align 8
  store ptr %13, ptr %8, align 8
  %14 = load ptr, ptr %8, align 8
  %15 = getelementptr inbounds %struct.ltp_data_seg_info_t, ptr %14, i32 0, i32 2
  %16 = load i64, ptr %15, align 8
  %17 = load ptr, ptr %8, align 8
  %18 = getelementptr inbounds %struct.ltp_data_seg_info_t, ptr %17, i32 0, i32 3
  %19 = load i64, ptr %18, align 8
  %20 = icmp ule i64 %16, %19
  br i1 %20, label %22, label %21

21:                                               ; preds = %3
  br label %62

22:                                               ; preds = %3
  %23 = load ptr, ptr %7, align 8
  %24 = call ptr @wmem_packet_scope()
  %25 = load ptr, ptr %8, align 8
  %26 = getelementptr inbounds %struct.ltp_data_seg_info_t, ptr %25, i32 0, i32 2
  %27 = load i64, ptr %26, align 8
  %28 = load ptr, ptr %8, align 8
  %29 = getelementptr inbounds %struct.ltp_data_seg_info_t, ptr %28, i32 0, i32 3
  %30 = load i64, ptr %29, align 8
  %31 = call ptr @wmem_itree_find_intervals(ptr noundef %23, ptr noundef %24, i64 noundef %27, i64 noundef %30)
  store ptr %31, ptr %9, align 8
  %32 = load ptr, ptr %9, align 8
  %33 = call ptr @wmem_list_head(ptr noundef %32)
  store ptr %33, ptr %10, align 8
  br label %34

34:                                               ; preds = %59, %22
  %35 = load ptr, ptr %10, align 8
  %36 = icmp ne ptr %35, null
  br i1 %36, label %37, label %62

37:                                               ; preds = %34
  %38 = load ptr, ptr %10, align 8
  %39 = call ptr @wmem_list_frame_data(ptr noundef %38)
  store ptr %39, ptr %11, align 8
  %40 = load ptr, ptr %11, align 8
  %41 = getelementptr inbounds %struct.ltp_frame_info_t, ptr %40, i32 0, i32 0
  %42 = load i32, ptr %41, align 8
  %43 = load ptr, ptr %8, align 8
  %44 = getelementptr inbounds %struct.ltp_data_seg_info_t, ptr %43, i32 0, i32 0
  %45 = load ptr, ptr %44, align 8
  %46 = getelementptr inbounds %struct._packet_info, ptr %45, i32 0, i32 3
  %47 = load i32, ptr %46, align 4
  %48 = icmp ult i32 %42, %47
  br i1 %48, label %49, label %50

49:                                               ; preds = %37
  br label %59

50:                                               ; preds = %37
  %51 = load ptr, ptr %8, align 8
  %52 = getelementptr inbounds %struct.ltp_data_seg_info_t, ptr %51, i32 0, i32 1
  %53 = load ptr, ptr %52, align 8
  %54 = load i32, ptr @hf_ltp_data_clm_rpt, align 4
  %55 = load ptr, ptr %11, align 8
  %56 = getelementptr inbounds %struct.ltp_frame_info_t, ptr %55, i32 0, i32 0
  %57 = load i32, ptr %56, align 8
  %58 = call ptr @proto_tree_add_uint(ptr noundef %53, i32 noundef %54, ptr noundef null, i32 noundef 0, i32 noundef 0, i32 noundef %57)
  call void @proto_item_set_generated(ptr noundef %58)
  br label %59

59:                                               ; preds = %50, %49
  %60 = load ptr, ptr %10, align 8
  %61 = call ptr @wmem_list_frame_next(ptr noundef %60)
  store ptr %61, ptr %10, align 8
  br label %34, !llvm.loop !14

62:                                               ; preds = %34, %21
  ret void
}