; Function Attrs: nounwind uwtable
define internal void @ltp_data_seg_find_report(ptr readnone captures(none) %0, ptr noundef %1, ptr noundef readonly captures(none) %2) #0 {
  %4 = getelementptr inbounds nuw i8, ptr %2, i64 16
  %5 = load i64, ptr %4, align 8
  %6 = getelementptr inbounds nuw i8, ptr %2, i64 24
  %7 = load i64, ptr %6, align 8
  %.not = icmp ugt i64 %5, %7
  br i1 %.not, label %.loopexit, label %8

8:                                                ; preds = %3
  %9 = tail call ptr @wmem_packet_scope() #8
  %10 = load i64, ptr %4, align 8
  %11 = load i64, ptr %6, align 8
  %12 = tail call ptr @wmem_itree_find_intervals(ptr noundef %1, ptr noundef %9, i64 noundef %10, i64 noundef %11) #8
  %13 = tail call ptr @wmem_list_head(ptr noundef %12) #8
  %.not1617 = icmp eq ptr %13, null
  br i1 %.not1617, label %.loopexit, label %.lr.ph

.lr.ph:                                           ; preds = %8
  %14 = getelementptr inbounds nuw i8, ptr %2, i64 8
  br label %15

15:                                               ; preds = %.lr.ph, %proto_item_set_generated.exit
  %.018 = phi ptr [ %13, %.lr.ph ], [ %33, %proto_item_set_generated.exit ]
  %16 = tail call ptr @wmem_list_frame_data(ptr noundef nonnull %.018) #8
  %17 = load i32, ptr %16, align 8
  %18 = load ptr, ptr %2, align 8
  %19 = getelementptr inbounds nuw i8, ptr %18, i64 20
  %20 = load i32, ptr %19, align 4
  %21 = icmp ult i32 %17, %20
  br i1 %21, label %proto_item_set_generated.exit, label %22

22:                                               ; preds = %15
  %23 = load ptr, ptr %14, align 8
  %24 = load i32, ptr @hf_ltp_data_clm_rpt, align 4
  %25 = tail call ptr @proto_tree_add_uint(ptr noundef %23, i32 noundef %24, ptr noundef null, i32 noundef 0, i32 noundef 0, i32 noundef %17) #8
  %.not.i = icmp eq ptr %25, null
  br i1 %.not.i, label %proto_item_set_generated.exit, label %26

26:                                               ; preds = %22
  %27 = getelementptr inbounds nuw i8, ptr %25, i64 32
  %28 = load ptr, ptr %27, align 8
  %.not5.i = icmp eq ptr %28, null
  br i1 %.not5.i, label %proto_item_set_generated.exit, label %29

29:                                               ; preds = %26
  %30 = getelementptr inbounds nuw i8, ptr %28, i64 28
  %31 = load i32, ptr %30, align 4
  %32 = or i32 %31, 2
  store i32 %32, ptr %30, align 4
  br label %proto_item_set_generated.exit

proto_item_set_generated.exit:                    ; preds = %29, %26, %22, %15
  %33 = tail call ptr @wmem_list_frame_next(ptr noundef nonnull %.018) #8
  %.not16 = icmp eq ptr %33, null
  br i1 %.not16, label %.loopexit, label %15, !llvm.loop !14

.loopexit:                                        ; preds = %proto_item_set_generated.exit, %8, %3
  ret void
}